target datalayout = "e-m:e-p270:32:32-p271:32:32-p272:64:64-i64:64-i128:128-f80:128-n8:16:32:64-S128"
target triple = "x86_64-pc-linux-gnu"

%struct.ggml_backend_device = type { %struct.ggml_backend_device_i, ptr, ptr }
%struct.ggml_backend_device_i = type { ptr, ptr, ptr, ptr, ptr, ptr, ptr, ptr, ptr, ptr, ptr, ptr, ptr, ptr, ptr }
%struct.ggml_backend_event = type { ptr, ptr }

; Function Attrs: mustprogress uwtable
define void @ggml_backend_event_free(ptr noundef %0) #0 {
  %2 = alloca ptr, align 8
  store ptr %0, ptr %2, align 8, !tbaa !93
  %3 = load ptr, ptr %2, align 8, !tbaa !93
  %4 = icmp eq ptr %3, null
  br i1 %4, label %5, label %6

5:                                                ; preds = %1
  br label %17

6:                                                ; preds = %1
  %7 = load ptr, ptr %2, align 8, !tbaa !93
  %8 = getelementptr inbounds nuw %struct.ggml_backend_event, ptr %7, i32 0, i32 0
  %9 = load ptr, ptr %8, align 8, !tbaa !95
  %10 = getelementptr inbounds nuw %struct.ggml_backend_device, ptr %9, i32 0, i32 0
  %11 = getelementptr inbounds nuw %struct.ggml_backend_device_i, ptr %10, i32 0, i32 13
  %12 = load ptr, ptr %11, align 8, !tbaa !97
  %13 = load ptr, ptr %2, align 8, !tbaa !93
  %14 = getelementptr inbounds nuw %struct.ggml_backend_event, ptr %13, i32 0, i32 0
  %15 = load ptr, ptr %14, align 8, !tbaa !95
  %16 = load ptr, ptr %2, align 8, !tbaa !93
  call void %12(ptr noundef %15, ptr noundef %16)
  br label %17

17:                                               ; preds = %6, %5
  ret void
}