; Function Attrs: mustprogress uwtable
define void @ggml_backend_event_free(ptr noundef %0) local_unnamed_addr #0 {
  %2 = icmp eq ptr %0, null
  br i1 %2, label %7, label %3

3:                                                ; preds = %1
  %4 = load ptr, ptr %0, align 8, !tbaa !79
  %5 = getelementptr inbounds nuw i8, ptr %4, i64 104
  %6 = load ptr, ptr %5, align 8, !tbaa !81
  tail call void %6(ptr noundef %4, ptr noundef nonnull %0)
  br label %7

7:                                                ; preds = %1, %3
  ret void
}